target datalayout = "e-m:e-p270:32:32-p271:32:32-p272:64:64-i64:64-i128:128-f80:128-n8:16:32:64-S128"
target triple = "x86_64-pc-linux-gnu"

%struct.json_dumper = type { ptr, ptr, i32, i32, i32, i32, [1100 x i8] }
%struct.hashipv4 = type { i32, i8, [16 x i8], [256 x i8], [19 x i8] }

@dumper = internal global %struct.json_dumper zeroinitializer, align 8
@.str.83 = private unnamed_addr constant [5 x i8] c"name\00", align 1
@.str.389 = private unnamed_addr constant [5 x i8] c"addr\00", align 1

; Function Attrs: null_pointer_is_valid sspstrong uwtable
define internal void @sharkd_json_object_close() #0 {
  call void @json_dumper_end_object(ptr noundef @dumper)
  ret void
}

; Function Attrs: null_pointer_is_valid sspstrong uwtable
define internal void @sharkd_json_value_string(ptr noundef %0, ptr noundef %1) #0 {
  %3 = alloca ptr, align 8
  %4 = alloca ptr, align 8
  store ptr %0, ptr %3, align 8
  store ptr %1, ptr %4, align 8
  %5 = load ptr, ptr %3, align 8
  %6 = icmp ne ptr %5, null
  br i1 %6, label %7, label %9

7:                                                ; preds = %2
  %8 = load ptr, ptr %3, align 8
  call void @json_dumper_set_member_name(ptr noundef @dumper, ptr noundef %8)
  br label %9

9:                                                ; preds = %7, %2
  %10 = load ptr, ptr %4, align 8
  call void @json_dumper_value_string(ptr noundef @dumper, ptr noundef %10)
  ret void
}

; Function Attrs: null_pointer_is_valid sspstrong uwtable
define internal void @sharkd_json_object_open(ptr noundef %0) #0 {
  %2 = alloca ptr, align 8
  store ptr %0, ptr %2, align 8
  %3 = load ptr, ptr %2, align 8
  %4 = icmp ne ptr %3, null
  br i1 %4, label %5, label %7

5:                                                ; preds = %1
  %6 = load ptr, ptr %2, align 8
  call void @json_dumper_set_member_name(ptr noundef @dumper, ptr noundef %6)
  br label %7

7:                                                ; preds = %5, %1
  call void @json_dumper_begin_object(ptr noundef @dumper)
  ret void
}

; Function Attrs: null_pointer_is_valid sspstrong uwtable
define internal void @sharkd_session_tap_ipv4_host_print(ptr noundef %0, ptr noundef %1) #0 {
  %3 = alloca ptr, align 8
  %4 = alloca ptr, align 8
  %5 = alloca ptr, align 8
  store ptr %0, ptr %3, align 8
  store ptr %1, ptr %4, align 8
  call void @llvm.lifetime.start.p0(i64 8, ptr %5) #21
  %6 = load ptr, ptr %3, align 8
  store ptr %6, ptr %5, align 8
  call void @sharkd_json_object_open(ptr noundef null)
  %7 = load ptr, ptr %5, align 8
  %8 = getelementptr inbounds nuw %struct.hashipv4, ptr %7, i32 0, i32 3
  %9 = getelementptr inbounds [256 x i8], ptr %8, i64 0, i64 0
  call void @sharkd_json_value_string(ptr noundef @.str.83, ptr noundef %9)
  %10 = load ptr, ptr %5, align 8
  %11 = getelementptr inbounds nuw %struct.hashipv4, ptr %10, i32 0, i32 2
  %12 = getelementptr inbounds [16 x i8], ptr %11, i64 0, i64 0
  call void @sharkd_json_value_string(ptr noundef @.str.389, ptr noundef %12)
  call void @sharkd_json_object_close()
  call void @llvm.lifetime.end.p0(i64 8, ptr %5) #21
  ret void
}