; Function Attrs: null_pointer_is_valid sspstrong uwtable
define internal void @sharkd_session_tap_ipv4_host_print(ptr noundef %0, ptr readnone captures(none) %1) #0 {
  tail call void @json_dumper_begin_object(ptr noundef nonnull @dumper)
  %3 = getelementptr inbounds nuw i8, ptr %0, i64 21
  tail call void @json_dumper_set_member_name(ptr noundef nonnull @dumper, ptr noundef nonnull @.str.83)
  tail call void @json_dumper_value_string(ptr noundef nonnull @dumper, ptr noundef nonnull %3)
  %4 = getelementptr inbounds nuw i8, ptr %0, i64 5
  tail call void @json_dumper_set_member_name(ptr noundef nonnull @dumper, ptr noundef nonnull @.str.389)
  tail call void @json_dumper_value_string(ptr noundef nonnull @dumper, ptr noundef nonnull %4)
  tail call void @json_dumper_end_object(ptr noundef nonnull @dumper)
  ret void
}